Certificate:
    Data:
        Version: 3 (0x2)
        Serial Number: 1324463537 (0x4ef1b5b1)
    Signature Algorithm: sha256WithRSAEncryption
        Issuer: C=US, ST=California, L=San Francisco, O=Twitch, OU=Twitch Developer Rig, CN=Twitch Developer Rig CA/emailAddress=twitchdev@twitch.tv
        Validity
            Not Before: Nov 11 02:37:05 2018 GMT
            Not After : Aug 25 02:37:05 2292 GMT
        Subject: C=US, ST=California, L=San Francisco, O=Twitch, OU=Twitch Developer Rig, CN=Twitch Developer Rig
        Subject Public Key Info:
            Public Key Algorithm: rsaEncryption
                Public-Key: (2048 bit)
                Modulus:
                    00:a8:75:c0:59:66:32:9b:25:8e:7b:26:1f:27:42:
                    6d:da:71:26:b2:56:9d:cb:4b:3f:4f:07:01:a9:d2:
                    83:85:1a:7a:a9:02:63:da:84:ca:2d:9f:64:40:84:
                    23:01:27:bc:26:e3:21:72:64:c1:ca:6e:d4:6e:18:
                    73:cb:d4:b4:00:03:5d:b2:9a:e0:5e:6f:d1:52:39:
                    e4:0f:6e:8b:75:c4:45:2e:68:17:7e:12:2f:9c:fc:
                    9b:ac:22:69:fa:0e:af:d2:57:f0:93:85:c8:f4:02:
                    99:86:64:16:3c:cd:13:2e:19:fa:0c:40:d9:57:f2:
                    28:f1:41:16:87:93:c8:d2:bd:ea:db:eb:f5:0b:0f:
                    5a:a3:64:0f:66:07:1f:a1:03:fb:a5:fb:5a:09:e4:
                    8a:62:50:24:a6:a9:08:3f:ca:9e:eb:30:8c:fb:65:
                    95:1a:70:3c:c8:d7:83:26:c6:78:9e:bc:dd:19:88:
                    a6:83:b2:ef:2a:ad:ff:9c:81:35:f2:8e:8d:2b:01:
                    bf:f4:ce:60:85:db:22:2d:9a:b3:c0:15:9d:e5:6d:
                    28:36:95:82:9f:70:aa:2f:22:e3:0f:de:24:ab:cc:
                    74:ca:d0:b7:b5:e6:49:8c:e6:d6:9e:34:65:bb:72:
                    af:70:d9:6c:0a:54:c2:72:29:a7:eb:e7:d1:84:7a:
                    50:df
                Exponent: 65537 (0x10001)
        X509v3 extensions:
            X509v3 Subject Key Identifier: 
                44:7A:46:7A:E8:3B:B1:B0:44:9C:C0:C7:C2:91:6F:DD:C0:F6:01:BA
            X509v3 Authority Key Identifier: 
                keyid:78:0F:BA:94:D2:D1:9B:AA:75:68:F5:56:F4:5C:53:04:70:25:CF:10

            X509v3 Basic Constraints: 
                CA:FALSE
            X509v3 Key Usage: 
                Digital Signature, Key Encipherment
            X509v3 Subject Alternative Name: 
                IP Address:127.0.0.1, IP Address:0:0:0:0:0:0:0:1, DNS:localhost.rig.twitch.tv, DNS:localhost
            Netscape Comment: 
                OpenSSL Generated Certificate
    Signature Algorithm: sha256WithRSAEncryption
         ce:05:64:25:15:c1:75:db:dc:35:49:61:4a:b1:f2:6c:95:e7:
         8f:2d:ff:a0:c0:f3:9d:40:8b:66:b3:41:67:89:09:b9:42:b3:
         22:b0:f9:a3:99:9a:03:e8:7c:5d:87:72:bd:17:59:62:bf:dc:
         b4:89:47:21:f5:ca:f6:26:e9:2d:ba:db:7b:8f:67:b7:99:9a:
         f5:c1:99:ac:7b:c3:57:fe:b6:75:7e:e8:9d:0f:15:06:e3:c1:
         21:88:09:de:b3:20:d6:04:35:40:ac:b8:53:6a:cb:9a:f6:09:
         47:46:d8:68:99:2c:ab:69:39:4c:82:fd:7d:6d:f7:18:c2:74:
         ed:03:e8:fb:c6:46:94:42:e5:66:09:e9:23:45:b2:de:bd:b9:
         d9:bd:4a:a6:a6:66:2e:63:84:91:0e:e2:4d:30:c9:59:43:db:
         95:ed:e1:af:e0:ff:29:83:f1:e5:af:c4:d2:54:01:23:f6:86:
         ee:97:94:c4:25:5f:8c:85:2f:31:f5:cb:c1:ca:6f:e3:a4:b4:
         d8:bf:6a:e4:ea:5c:2a:77:e1:54:97:a9:e6:f2:ed:5a:88:70:
         07:74:40:dc:82:aa:ce:24:5a:e8:9c:20:d9:6b:ba:00:38:6e:
         35:50:35:56:c1:b3:9a:b0:f3:59:f2:6a:87:ab:f1:36:77:cf:
         d0:aa:69:39:fa:3d:40:f3:c4:b0:63:14:00:e4:09:d0:4e:85:
         66:09:28:59:ff:05:11:e2:9d:95:d1:78:32:aa:18:a8:34:7d:
         75:42:0a:01:26:09:74:64:8d:e8:f4:bd:72:e1:2b:77:e0:7f:
         d3:f0:35:35:ef:40:8a:29:da:c9:cf:b4:f0:94:df:61:29:cc:
         64:49:b3:11:0e:2f:2d:77:ac:58:42:30:9e:5b:0e:6d:ee:48:
         93:aa:04:3b:36:aa:cb:f5:7f:3b:f9:f9:f9:7d:2f:e0:38:7a:
         ff:76:73:22:59:06:01:34:24:47:7e:6c:fc:96:09:d8:bd:ee:
         9f:fd:4b:5a:ad:2d:36:e1:9f:1c:d0:15:de:28:05:fb:d8:52:
         b4:7c:35:ba:5e:00:22:10:1c:a1:a1:86:ed:8e:c6:94:30:10:
         1c:f9:21:de:5b:6d:15:8d:cd:31:70:be:20:6d:d6:9f:b8:79:
         6d:cf:34:b2:9d:5e:f3:0c:80:bb:a0:6e:1f:0e:a7:41:c4:48:
         22:04:ae:3a:1c:33:f0:10:f6:b3:62:9e:df:a4:36:5b:35:e5:
         d3:b3:7f:16:2b:ed:34:6b:97:c0:96:35:5e:2d:ed:0e:e7:62:
         44:da:19:7c:6b:0c:8d:b1:71:f6:0a:e3:11:73:ba:ae:52:02:
         e7:d5:c2:69:0d:9c:02:47
-----BEGIN CERTIFICATE-----
MIIFjDCCA3SgAwIBAgIETvG1sTANBgkqhkiG9w0BAQsFADCBsDELMAkGA1UEBhMC
VVMxEzARBgNVBAgMCkNhbGlmb3JuaWExFjAUBgNVBAcMDVNhbiBGcmFuY2lzY28x
DzANBgNVBAoMBlR3aXRjaDEdMBsGA1UECwwUVHdpdGNoIERldmVsb3BlciBSaWcx
IDAeBgNVBAMMF1R3aXRjaCBEZXZlbG9wZXIgUmlnIENBMSIwIAYJKoZIhvcNAQkB
FhN0d2l0Y2hkZXZAdHdpdGNoLnR2MCAXDTE4MTExMTAyMzcwNVoYDzIyOTIwODI1
MDIzNzA1WjCBiTELMAkGA1UEBhMCVVMxEzARBgNVBAgMCkNhbGlmb3JuaWExFjAU
BgNVBAcMDVNhbiBGcmFuY2lzY28xDzANBgNVBAoMBlR3aXRjaDEdMBsGA1UECwwU
VHdpdGNoIERldmVsb3BlciBSaWcxHTAbBgNVBAMMFFR3aXRjaCBEZXZlbG9wZXIg
UmlnMIIBIjANBgkqhkiG9w0BAQEFAAOCAQ8AMIIBCgKCAQEAqHXAWWYymyWOeyYf
J0Jt2nEmslady0s/TwcBqdKDhRp6qQJj2oTKLZ9kQIQjASe8JuMhcmTBym7Ubhhz
y9S0AANdsprgXm/RUjnkD26LdcRFLmgXfhIvnPybrCJp+g6v0lfwk4XI9AKZhmQW
PM0TLhn6DEDZV/Io8UEWh5PI0r3q2+v1Cw9ao2QPZgcfoQP7pftaCeSKYlAkpqkI
P8qe6zCM+2WVGnA8yNeDJsZ4nrzdGYimg7LvKq3/nIE18o6NKwG/9M5ghdsiLZqz
wBWd5W0oNpWCn3CqLyLjD94kq8x0ytC3teZJjObWnjRlu3KvcNlsClTCcimn6+fR
hHpQ3wIDAQABo4HQMIHNMB0GA1UdDgQWBBREekZ66DuxsEScwMfCkW/dwPYBujAf
BgNVHSMEGDAWgBR4D7qU0tGbqnVo9Vb0XFMEcCXPEDAJBgNVHRMEAjAAMAsGA1Ud
DwQEAwIFoDBFBgNVHREEPjA8hwR/AAABhxAAAAAAAAAAAAAAAAAAAAABghdsb2Nh
bGhvc3QucmlnLnR3aXRjaC50doIJbG9jYWxob3N0MCwGCWCGSAGG+EIBDQQfFh1P
cGVuU1NMIEdlbmVyYXRlZCBDZXJ0aWZpY2F0ZTANBgkqhkiG9w0BAQsFAAOCAgEA
zgVkJRXBddvcNUlhSrHybJXnjy3/oMDznUCLZrNBZ4kJuUKzIrD5o5maA+h8XYdy
vRdZYr/ctIlHIfXK9ibpLbrbe49nt5ma9cGZrHvDV/62dX7onQ8VBuPBIYgJ3rMg
1gQ1QKy4U2rLmvYJR0bYaJksq2k5TIL9fW33GMJ07QPo+8ZGlELlZgnpI0Wy3r25
2b1KpqZmLmOEkQ7iTTDJWUPble3hr+D/KYPx5a/E0lQBI/aG7peUxCVfjIUvMfXL
wcpv46S02L9q5OpcKnfhVJep5vLtWohwB3RA3IKqziRa6Jwg2Wu6ADhuNVA1VsGz
mrDzWfJqh6vxNnfP0KppOfo9QPPEsGMUAOQJ0E6FZgkoWf8FEeKdldF4MqoYqDR9
dUIKASYJdGSN6PS9cuErd+B/0/A1Ne9Aiinayc+08JTfYSnMZEmzEQ4vLXesWEIw
nlsObe5Ik6oEOzaqy/V/O/n5+X0v4Dh6/3ZzIlkGATQkR35s/JYJ2L3un/1LWq0t
NuGfHNAV3igF+9hStHw1ul4AIhAcoaGG7Y7GlDAQHPkh3lttFY3NMXC+IG3Wn7h5
bc80sp1e8wyAu6BuHw6nQcRIIgSuOhwz8BD2s2Ke36Q2WzXl07N/FivtNGuXwJY1
Xi3tDudiRNoZfGsMjbFx9grjEXO6rlIC59XCaQ2cAkc=
-----END CERTIFICATE-----
